target datalayout = "e-m:e-p270:32:32-p271:32:32-p272:64:64-i64:64-i128:128-f80:128-n8:16:32:64-S128"
target triple = "x86_64-pc-linux-gnu"

%struct.TypeCacheEntry = type { i32, i32, i16, i8, i8, i8, i8, i32, i32, i32, i32, i32, i32, i32, i32, i32, i32, i32, i32, i32, i32, %struct.FmgrInfo, %struct.FmgrInfo, %struct.FmgrInfo, %struct.FmgrInfo, ptr, i64, ptr, i32, i32, %struct.FmgrInfo, %struct.FmgrInfo, %struct.FmgrInfo, ptr, i32, i32, ptr, i32, ptr, ptr }
%struct.FmgrInfo = type { ptr, i32, i16, i8, i8, i8, ptr, ptr, ptr }

@.str.3 = private unnamed_addr constant [11 x i8] c"typcache.c\00", align 1
@.str.13 = private unnamed_addr constant [43 x i8] c"cache lookup failed for multirange type %u\00", align 1
@__func__.load_multirangetype_info = private unnamed_addr constant [25 x i8] c"load_multirangetype_info\00", align 1

; Function Attrs: nounwind uwtable
define internal void @load_multirangetype_info(ptr noundef %0) #0 {
  %2 = alloca ptr, align 8
  %3 = alloca i32, align 4
  store ptr %0, ptr %2, align 8
  call void @llvm.lifetime.start.p0(i64 4, ptr %3) #11
  %4 = load ptr, ptr %2, align 8
  %5 = getelementptr inbounds nuw %struct.TypeCacheEntry, ptr %4, i32 0, i32 0
  %6 = load i32, ptr %5, align 8
  %7 = call i32 @get_multirange_range(i32 noundef %6)
  store i32 %7, ptr %3, align 4
  %8 = load i32, ptr %3, align 4
  %9 = icmp ne i32 %8, 0
  br i1 %9, label %24, label %10

10:                                               ; preds = %1
  br label %11

11:                                               ; preds = %10
  br i1 true, label %12, label %14

12:                                               ; preds = %11
  %13 = call zeroext i1 @errstart_cold(i32 noundef 21, ptr noundef null) #12
  br i1 %13, label %16, label %21

14:                                               ; preds = %11
  %15 = call zeroext i1 @errstart(i32 noundef 21, ptr noundef null)
  br i1 %15, label %16, label %21

16:                                               ; preds = %14, %12
  %17 = load ptr, ptr %2, align 8
  %18 = getelementptr inbounds nuw %struct.TypeCacheEntry, ptr %17, i32 0, i32 0
  %19 = load i32, ptr %18, align 8
  %20 = call i32 (ptr, ...) @errmsg_internal(ptr noundef @.str.13, i32 noundef %19)
  call void @errfinish(ptr noundef @.str.3, i32 noundef 1066, ptr noundef @__func__.load_multirangetype_info)
  br label %21

21:                                               ; preds = %16, %14, %12
  unreachable

22:                                               ; No predecessors!
  br label %23

23:                                               ; preds = %22
  br label %24

24:                                               ; preds = %23, %1
  %25 = load i32, ptr %3, align 4
  %26 = call ptr @lookup_type_cache(i32 noundef %25, i32 noundef 2048)
  %27 = load ptr, ptr %2, align 8
  %28 = getelementptr inbounds nuw %struct.TypeCacheEntry, ptr %27, i32 0, i32 33
  store ptr %26, ptr %28, align 8
  call void @llvm.lifetime.end.p0(i64 4, ptr %3) #11
  ret void
}

; Function Attrs: nounwind uwtable
define internal void @cache_multirange_element_properties(ptr noundef %0) #0 {
  %2 = alloca ptr, align 8
  %3 = alloca ptr, align 8
  store ptr %0, ptr %2, align 8
  %4 = load ptr, ptr %2, align 8
  %5 = getelementptr inbounds nuw %struct.TypeCacheEntry, ptr %4, i32 0, i32 33
  %6 = load ptr, ptr %5, align 8
  %7 = icmp eq ptr %6, null
  br i1 %7, label %8, label %16

8:                                                ; preds = %1
  %9 = load ptr, ptr %2, align 8
  %10 = getelementptr inbounds nuw %struct.TypeCacheEntry, ptr %9, i32 0, i32 6
  %11 = load i8, ptr %10, align 1
  %12 = sext i8 %11 to i32
  %13 = icmp eq i32 %12, 109
  br i1 %13, label %14, label %16

14:                                               ; preds = %8
  %15 = load ptr, ptr %2, align 8
  call void @load_multirangetype_info(ptr noundef %15)
  br label %16

16:                                               ; preds = %14, %8, %1
  %17 = load ptr, ptr %2, align 8
  %18 = getelementptr inbounds nuw %struct.TypeCacheEntry, ptr %17, i32 0, i32 33
  %19 = load ptr, ptr %18, align 8
  %20 = icmp ne ptr %19, null
  br i1 %20, label %21, label %57

21:                                               ; preds = %16
  %22 = load ptr, ptr %2, align 8
  %23 = getelementptr inbounds nuw %struct.TypeCacheEntry, ptr %22, i32 0, i32 33
  %24 = load ptr, ptr %23, align 8
  %25 = getelementptr inbounds nuw %struct.TypeCacheEntry, ptr %24, i32 0, i32 27
  %26 = load ptr, ptr %25, align 8
  %27 = icmp ne ptr %26, null
  br i1 %27, label %28, label %57

28:                                               ; preds = %21
  call void @llvm.lifetime.start.p0(i64 8, ptr %3) #11
  %29 = load ptr, ptr %2, align 8
  %30 = getelementptr inbounds nuw %struct.TypeCacheEntry, ptr %29, i32 0, i32 33
  %31 = load ptr, ptr %30, align 8
  %32 = getelementptr inbounds nuw %struct.TypeCacheEntry, ptr %31, i32 0, i32 27
  %33 = load ptr, ptr %32, align 8
  %34 = getelementptr inbounds nuw %struct.TypeCacheEntry, ptr %33, i32 0, i32 0
  %35 = load i32, ptr %34, align 8
  %36 = call ptr @lookup_type_cache(i32 noundef %35, i32 noundef 16400)
  store ptr %36, ptr %3, align 8
  %37 = load ptr, ptr %3, align 8
  %38 = getelementptr inbounds nuw %struct.TypeCacheEntry, ptr %37, i32 0, i32 19
  %39 = load i32, ptr %38, align 8
  %40 = icmp ne i32 %39, 0
  br i1 %40, label %41, label %46

41:                                               ; preds = %28
  %42 = load ptr, ptr %2, align 8
  %43 = getelementptr inbounds nuw %struct.TypeCacheEntry, ptr %42, i32 0, i32 37
  %44 = load i32, ptr %43, align 8
  %45 = or i32 %44, 4096
  store i32 %45, ptr %43, align 8
  br label %46

46:                                               ; preds = %41, %28
  %47 = load ptr, ptr %3, align 8
  %48 = getelementptr inbounds nuw %struct.TypeCacheEntry, ptr %47, i32 0, i32 20
  %49 = load i32, ptr %48, align 4
  %50 = icmp ne i32 %49, 0
  br i1 %50, label %51, label %56

51:                                               ; preds = %46
  %52 = load ptr, ptr %2, align 8
  %53 = getelementptr inbounds nuw %struct.TypeCacheEntry, ptr %52, i32 0, i32 37
  %54 = load i32, ptr %53, align 8
  %55 = or i32 %54, 8192
  store i32 %55, ptr %53, align 8
  br label %56

56:                                               ; preds = %51, %46
  call void @llvm.lifetime.end.p0(i64 8, ptr %3) #11
  br label %57

57:                                               ; preds = %56, %21, %16
  %58 = load ptr, ptr %2, align 8
  %59 = getelementptr inbounds nuw %struct.TypeCacheEntry, ptr %58, i32 0, i32 37
  %60 = load i32, ptr %59, align 8
  %61 = or i32 %60, 512
  store i32 %61, ptr %59, align 8
  ret void
}