; Function Attrs: nounwind uwtable
define internal fastcc void @cache_multirange_element_properties(ptr noundef captures(none) %0) unnamed_addr #0 {
  %2 = getelementptr inbounds nuw i8, ptr %0, i64 440
  %3 = load ptr, ptr %2, align 8
  %4 = icmp eq ptr %3, null
  br i1 %4, label %5, label %.thread

5:                                                ; preds = %1
  %6 = getelementptr inbounds nuw i8, ptr %0, i64 13
  %7 = load i8, ptr %6, align 1
  %8 = icmp eq i8 %7, 109
  br i1 %8, label %9, label %thread-pre-split.thread

9:                                                ; preds = %5
  %10 = load i32, ptr %0, align 8
  %11 = tail call i32 @get_multirange_range(i32 noundef %10) #16
  %.not.i = icmp eq i32 %11, 0
  br i1 %.not.i, label %12, label %thread-pre-split

12:                                               ; preds = %9
  %13 = tail call zeroext i1 @errstart_cold(i32 noundef 21, ptr noundef null) #17
  tail call void @llvm.assume(i1 %13)
  %14 = load i32, ptr %0, align 8
  %15 = tail call i32 (ptr, ...) @errmsg_internal(ptr noundef nonnull @.str.13, i32 noundef %14) #16
  tail call void @errfinish(ptr noundef nonnull @.str.3, i32 noundef 1066, ptr noundef nonnull @__func__.load_multirangetype_info) #16
  unreachable

thread-pre-split:                                 ; preds = %9
  %16 = tail call ptr @lookup_type_cache(i32 noundef %11, i32 noundef 2048)
  store ptr %16, ptr %2, align 8
  %.not = icmp eq ptr %16, null
  br i1 %.not, label %thread-pre-split.thread, label %.thread

.thread:                                          ; preds = %1, %thread-pre-split
  %17 = phi ptr [ %16, %thread-pre-split ], [ %3, %1 ]
  %18 = getelementptr inbounds nuw i8, ptr %17, i64 280
  %19 = load ptr, ptr %18, align 8
  %.not12 = icmp eq ptr %19, null
  br i1 %.not12, label %thread-pre-split.thread, label %20

20:                                               ; preds = %.thread
  %21 = load i32, ptr %19, align 8
  %22 = tail call ptr @lookup_type_cache(i32 noundef %21, i32 noundef 16400)
  %23 = getelementptr inbounds nuw i8, ptr %22, i64 64
  %24 = load i32, ptr %23, align 8
  %.not13 = icmp eq i32 %24, 0
  br i1 %.not13, label %29, label %25

25:                                               ; preds = %20
  %26 = getelementptr inbounds nuw i8, ptr %0, i64 464
  %27 = load i32, ptr %26, align 8
  %28 = or i32 %27, 4096
  store i32 %28, ptr %26, align 8
  br label %29

29:                                               ; preds = %25, %20
  %30 = getelementptr inbounds nuw i8, ptr %22, i64 68
  %31 = load i32, ptr %30, align 4
  %.not14 = icmp eq i32 %31, 0
  br i1 %.not14, label %thread-pre-split.thread, label %32

32:                                               ; preds = %29
  %33 = getelementptr inbounds nuw i8, ptr %0, i64 464
  %34 = load i32, ptr %33, align 8
  %35 = or i32 %34, 8192
  store i32 %35, ptr %33, align 8
  br label %thread-pre-split.thread

thread-pre-split.thread:                          ; preds = %5, %29, %32, %.thread, %thread-pre-split
  %36 = getelementptr inbounds nuw i8, ptr %0, i64 464
  %37 = load i32, ptr %36, align 8
  %38 = or i32 %37, 512
  store i32 %38, ptr %36, align 8
  ret void
}